; ModuleID = '26/644.c'
source_filename = "26/644.c"
target datalayout = "e-m:e-p270:32:32-p271:32:32-p272:64:64-i64:64-f80:128-n8:16:32:64-S128"
target triple = "x86_64-pc-linux-gnu"

@.str = private unnamed_addr constant [2 x i8] c"\0A\00", align 1

; Function Attrs: noinline nounwind uwtable
define dso_local void @main() #0 {
  %1 = alloca i32, align 4
  %2 = alloca i32, align 4
  %3 = alloca [100000 x i8], align 16
  store i32 0, i32* %1, align 4
  br label %4

4:                                                ; preds = %0, %47
  %5 = getelementptr inbounds [100000 x i8], [100000 x i8]* %3, i64 0, i64 0
  %6 = call i32 (i8*, ...) bitcast (i32 (...)* @gets to i32 (i8*, ...)*)(i8* %5)
  store i32 0, i32* %2, align 4
  br label %7

7:                                                ; preds = %44, %4
  %8 = load i32, i32* %2, align 4
  %9 = icmp slt i32 %8, 100000
  br i1 %9, label %10, label %47

10:                                               ; preds = %7
  %11 = load i32, i32* %2, align 4
  %12 = sext i32 %11 to i64
  %13 = getelementptr inbounds [100000 x i8], [100000 x i8]* %3, i64 0, i64 %12
  %14 = load i8, i8* %13, align 1
  %15 = icmp ne i8 %14, 0
  br i1 %15, label %17, label %16

16:                                               ; preds = %10
  br label %48

17:                                               ; preds = %10
  %18 = load i32, i32* %2, align 4
  %19 = sext i32 %18 to i64
  %20 = getelementptr inbounds [100000 x i8], [100000 x i8]* %3, i64 0, i64 %19
  %21 = load i8, i8* %20, align 1
  %22 = sext i8 %21 to i32
  %23 = icmp ne i32 %22, 32
  br i1 %23, label %27, label %24

24:                                               ; preds = %17
  %25 = load i32, i32* %1, align 4
  %26 = icmp eq i32 %25, 0
  br i1 %26, label %27, label %34

27:                                               ; preds = %24, %17
  %28 = load i32, i32* %2, align 4
  %29 = sext i32 %28 to i64
  %30 = getelementptr inbounds [100000 x i8], [100000 x i8]* %3, i64 0, i64 %29
  %31 = load i8, i8* %30, align 1
  %32 = sext i8 %31 to i32
  %33 = call i32 @putchar(i32 %32)
  br label %34

34:                                               ; preds = %27, %24
  %35 = load i32, i32* %2, align 4
  %36 = sext i32 %35 to i64
  %37 = getelementptr inbounds [100000 x i8], [100000 x i8]* %3, i64 0, i64 %36
  %38 = load i8, i8* %37, align 1
  %39 = sext i8 %38 to i32
  %40 = icmp eq i32 %39, 32
  br i1 %40, label %41, label %42

41:                                               ; preds = %34
  store i32 1, i32* %1, align 4
  br label %43

42:                                               ; preds = %34
  store i32 0, i32* %1, align 4
  br label %43

43:                                               ; preds = %42, %41
  br label %44

44:                                               ; preds = %43
  %45 = load i32, i32* %2, align 4
  %46 = add nsw i32 %45, 1
  store i32 %46, i32* %2, align 4
  br label %7

47:                                               ; preds = %7
  br label %4

48:                                               ; preds = %16
  %49 = call i32 (i8*, ...) @printf(i8* getelementptr inbounds ([2 x i8], [2 x i8]* @.str, i64 0, i64 0))
  ret void
}

declare dso_local i32 @gets(...) #1

declare dso_local i32 @putchar(i32) #1

declare dso_local i32 @printf(i8*, ...) #1


!llvm.module.flags = !{!0}
!llvm.ident = !{!1}

!0 = !{i32 1, !"wchar_size", i32 4}
!1 = !{!"clang version 10.0.0-4ubuntu1 "}
