; ModuleID = 'source-C-CXX/25/644.c'
source_filename = "source-C-CXX/25/644.c"
target datalayout = "e-m:e-p270:32:32-p271:32:32-p272:64:64-i64:64-f80:128-n8:16:32:64-S128"
target triple = "x86_64-pc-linux-gnu"

%struct._IO_FILE = type { i32, i8*, i8*, i8*, i8*, i8*, i8*, i8*, i8*, i8*, i8*, i8*, %struct._IO_marker*, %struct._IO_FILE*, i32, i32, i64, i16, i8, [1 x i8], i8*, i64, %struct._IO_codecvt*, %struct._IO_wide_data*, %struct._IO_FILE*, i8*, i64, i32, [20 x i8] }
%struct._IO_marker = type opaque
%struct._IO_codecvt = type opaque
%struct._IO_wide_data = type opaque

@stdout = external local_unnamed_addr global %struct._IO_FILE*, align 8

; Function Attrs: nounwind sspstrong uwtable
define dso_local void @main() local_unnamed_addr #0 {
  %1 = alloca [100000 x i8], align 16
  %2 = getelementptr inbounds [100000 x i8], [100000 x i8]* %1, i64 0, i64 0
  call void @llvm.lifetime.start.p0i8(i64 100000, i8* nonnull %2) #4
  br label %3

3:                                                ; preds = %21, %0
  %4 = phi i32 [ 0, %0 ], [ %24, %21 ]
  %5 = call i32 (i8*, ...) bitcast (i32 (...)* @gets to i32 (i8*, ...)*)(i8* nonnull %2) #4
  br label %6

6:                                                ; preds = %3, %21
  %7 = phi i64 [ 0, %3 ], [ %25, %21 ]
  %8 = phi i32 [ %4, %3 ], [ %24, %21 ]
  %9 = getelementptr inbounds [100000 x i8], [100000 x i8]* %1, i64 0, i64 %7
  %10 = load i8, i8* %9, align 1, !tbaa !5
  %11 = icmp eq i8 %10, 0
  br i1 %11, label %27, label %12

12:                                               ; preds = %6
  %13 = icmp ne i8 %10, 32
  %14 = icmp eq i32 %8, 0
  %15 = select i1 %13, i1 true, i1 %14
  br i1 %15, label %16, label %21

16:                                               ; preds = %12
  %17 = sext i8 %10 to i32
  %18 = load %struct._IO_FILE*, %struct._IO_FILE** @stdout, align 8, !tbaa !8
  %19 = call i32 @putc(i32 %17, %struct._IO_FILE* %18) #4
  %20 = load i8, i8* %9, align 1, !tbaa !5
  br label %21

21:                                               ; preds = %12, %16
  %22 = phi i8 [ 32, %12 ], [ %20, %16 ]
  %23 = icmp eq i8 %22, 32
  %24 = zext i1 %23 to i32
  %25 = add nuw nsw i64 %7, 1
  %26 = icmp eq i64 %25, 100000
  br i1 %26, label %3, label %6, !llvm.loop !10

27:                                               ; preds = %6
  %28 = load %struct._IO_FILE*, %struct._IO_FILE** @stdout, align 8, !tbaa !8
  %29 = call i32 @putc(i32 10, %struct._IO_FILE* %28) #4
  call void @llvm.lifetime.end.p0i8(i64 100000, i8* nonnull %2) #4
  ret void
}

; Function Attrs: argmemonly mustprogress nofree nosync nounwind willreturn
declare void @llvm.lifetime.start.p0i8(i64 immarg, i8* nocapture) #1

declare i32 @gets(...) local_unnamed_addr #2

; Function Attrs: argmemonly mustprogress nofree nosync nounwind willreturn
declare void @llvm.lifetime.end.p0i8(i64 immarg, i8* nocapture) #1

; Function Attrs: nofree nounwind
declare noundef i32 @putc(i32 noundef, %struct._IO_FILE* nocapture noundef) local_unnamed_addr #3


!llvm.module.flags = !{!0, !1, !2, !3}
!llvm.ident = !{!4}

!0 = !{i32 1, !"wchar_size", i32 4}
!1 = !{i32 7, !"PIC Level", i32 2}
!2 = !{i32 7, !"PIE Level", i32 2}
!3 = !{i32 7, !"uwtable", i32 1}
!4 = !{!"clang version 13.0.0"}
!5 = !{!6, !6, i64 0}
!6 = !{!"omnipotent char", !7, i64 0}
!7 = !{!"Simple C/C++ TBAA"}
!8 = !{!9, !9, i64 0}
!9 = !{!"any pointer", !6, i64 0}
!10 = distinct !{!10, !11}
!11 = !{!"llvm.loop.mustprogress"}
